target datalayout = "e-m:e-p270:32:32-p271:32:32-p272:64:64-i64:64-i128:128-f80:128-n8:16:32:64-S128"
target triple = "x86_64-pc-linux-gnu"

%"struct.duckdb_libpgquery::pg_parser_state_str" = type { i32, i32, [8192 x i8], i64, i64, ptr, i64 }
%"struct.duckdb_libpgquery::parse_result_str" = type <{ i8, [7 x i8], ptr, %"class.std::__cxx11::basic_string", i32, [4 x i8] }>
%"class.std::__cxx11::basic_string" = type { %"struct.std::__cxx11::basic_string<char>::_Alloc_hider", i64, %union.anon }
%"struct.std::__cxx11::basic_string<char>::_Alloc_hider" = type { ptr }
%union.anon = type { i64, [8 x i8] }

@_ZN17duckdb_libpgqueryL15pg_parser_stateE = internal thread_local global %"struct.duckdb_libpgquery::pg_parser_state_str" zeroinitializer, align 8
@_ZTISt9exception = external constant ptr

; Function Attrs: mustprogress uwtable
define hidden void @_ZN17duckdb_libpgquery15pg_parser_parseEPKcPNS_16parse_result_strE(ptr noundef %0, ptr noundef %1) #0 personality ptr @__gxx_personality_v0 {
  %3 = alloca ptr, align 8
  %4 = alloca ptr, align 8
  %5 = alloca ptr, align 8
  %6 = alloca i32, align 4
  %7 = alloca ptr, align 8
  store ptr %0, ptr %3, align 8, !tbaa !14
  store ptr %1, ptr %4, align 8, !tbaa !26
  %8 = load ptr, ptr %4, align 8, !tbaa !26
  %9 = getelementptr inbounds nuw %"struct.duckdb_libpgquery::parse_result_str", ptr %8, i32 0, i32 2
  store ptr null, ptr %9, align 8, !tbaa !28
  %10 = load ptr, ptr %3, align 8, !tbaa !14
  %11 = invoke noundef ptr @_ZN17duckdb_libpgquery10raw_parserEPKc(ptr noundef %10)
          to label %12 unwind label %22

12:                                               ; preds = %2
  %13 = load ptr, ptr %4, align 8, !tbaa !26
  %14 = getelementptr inbounds nuw %"struct.duckdb_libpgquery::parse_result_str", ptr %13, i32 0, i32 2
  store ptr %11, ptr %14, align 8, !tbaa !28
  %15 = call align 8 ptr @llvm.threadlocal.address.p0(ptr align 8 @_ZN17duckdb_libpgqueryL15pg_parser_stateE)
  %16 = getelementptr inbounds nuw %"struct.duckdb_libpgquery::pg_parser_state_str", ptr %15, i32 0, i32 0
  %17 = load i32, ptr %16, align 8, !tbaa !20
  %18 = icmp eq i32 %17, 0
  %19 = load ptr, ptr %4, align 8, !tbaa !26
  %20 = getelementptr inbounds nuw %"struct.duckdb_libpgquery::parse_result_str", ptr %19, i32 0, i32 0
  %21 = zext i1 %18 to i8
  store i8 %21, ptr %20, align 8, !tbaa !34
  br label %49

22:                                               ; preds = %2
  %23 = landingpad { ptr, i32 }
          catch ptr @_ZTISt9exception
  %24 = extractvalue { ptr, i32 } %23, 0
  store ptr %24, ptr %5, align 8
  %25 = extractvalue { ptr, i32 } %23, 1
  store i32 %25, ptr %6, align 4
  br label %26

26:                                               ; preds = %22
  %27 = load i32, ptr %6, align 4
  %28 = call i32 @llvm.eh.typeid.for.p0(ptr @_ZTISt9exception) #13
  %29 = icmp eq i32 %27, %28
  br i1 %29, label %30, label %55

30:                                               ; preds = %26
  call void @llvm.lifetime.start.p0(i64 8, ptr %7) #13
  %31 = load ptr, ptr %5, align 8
  %32 = call ptr @__cxa_begin_catch(ptr %31) #13
  store ptr %32, ptr %7, align 8
  %33 = load ptr, ptr %4, align 8, !tbaa !26
  %34 = getelementptr inbounds nuw %"struct.duckdb_libpgquery::parse_result_str", ptr %33, i32 0, i32 0
  store i8 0, ptr %34, align 8, !tbaa !34
  %35 = load ptr, ptr %7, align 8, !tbaa !35
  %36 = load ptr, ptr %35, align 8, !tbaa !24
  %37 = getelementptr inbounds ptr, ptr %36, i64 2
  %38 = load ptr, ptr %37, align 8
  %39 = call noundef ptr %38(ptr noundef nonnull align 8 dereferenceable(8) %35) #13
  %40 = load ptr, ptr %4, align 8, !tbaa !26
  %41 = getelementptr inbounds nuw %"struct.duckdb_libpgquery::parse_result_str", ptr %40, i32 0, i32 3
  %42 = invoke noundef nonnull align 8 dereferenceable(32) ptr @_ZNSt7__cxx1112basic_stringIcSt11char_traitsIcESaIcEEaSEPKc(ptr noundef nonnull align 8 dereferenceable(32) %41, ptr noundef %39)
          to label %43 unwind label %50

43:                                               ; preds = %30
  %44 = call align 8 ptr @llvm.threadlocal.address.p0(ptr align 8 @_ZN17duckdb_libpgqueryL15pg_parser_stateE)
  %45 = getelementptr inbounds nuw %"struct.duckdb_libpgquery::pg_parser_state_str", ptr %44, i32 0, i32 1
  %46 = load i32, ptr %45, align 4, !tbaa !37
  %47 = load ptr, ptr %4, align 8, !tbaa !26
  %48 = getelementptr inbounds nuw %"struct.duckdb_libpgquery::parse_result_str", ptr %47, i32 0, i32 4
  store i32 %46, ptr %48, align 8, !tbaa !38
  call void @__cxa_end_catch()
  call void @llvm.lifetime.end.p0(i64 8, ptr %7) #13
  br label %49

49:                                               ; preds = %43, %12
  ret void

50:                                               ; preds = %30
  %51 = landingpad { ptr, i32 }
          cleanup
  %52 = extractvalue { ptr, i32 } %51, 0
  store ptr %52, ptr %5, align 8
  %53 = extractvalue { ptr, i32 } %51, 1
  store i32 %53, ptr %6, align 4
  invoke void @__cxa_end_catch()
          to label %54 unwind label %60

54:                                               ; preds = %50
  call void @llvm.lifetime.end.p0(i64 8, ptr %7) #13
  br label %55

55:                                               ; preds = %54, %26
  %56 = load ptr, ptr %5, align 8
  %57 = load i32, ptr %6, align 4
  %58 = insertvalue { ptr, i32 } poison, ptr %56, 0
  %59 = insertvalue { ptr, i32 } %58, i32 %57, 1
  resume { ptr, i32 } %59

60:                                               ; preds = %50
  %61 = landingpad { ptr, i32 }
          catch ptr null
  %62 = extractvalue { ptr, i32 } %61, 0
  call void @__clang_call_terminate(ptr %62) #16
  unreachable
}