; Function Attrs: mustprogress uwtable
define hidden void @_ZN17duckdb_libpgquery15pg_parser_parseEPKcPNS_16parse_result_strE(ptr noundef %0, ptr noundef initializes((8, 16)) %1) local_unnamed_addr #0 personality ptr @__gxx_personality_v0 {
  %3 = getelementptr inbounds nuw i8, ptr %1, i64 8
  store ptr null, ptr %3, align 8, !tbaa !20
  %4 = invoke noundef ptr @_ZN17duckdb_libpgquery10raw_parserEPKc(ptr noundef %0)
          to label %5 unwind label %10

5:                                                ; preds = %2
  store ptr %4, ptr %3, align 8, !tbaa !20
  %6 = tail call align 8 ptr @llvm.threadlocal.address.p0(ptr align 8 @_ZN17duckdb_libpgqueryL15pg_parser_stateE)
  %7 = load i32, ptr %6, align 8, !tbaa !18
  %8 = icmp eq i32 %7, 0
  %9 = zext i1 %8 to i8
  store i8 %9, ptr %1, align 8, !tbaa !26
  br label %29

10:                                               ; preds = %2
  %11 = landingpad { ptr, i32 }
          catch ptr @_ZTISt9exception
  %12 = extractvalue { ptr, i32 } %11, 1
  %13 = tail call i32 @llvm.eh.typeid.for.p0(ptr nonnull @_ZTISt9exception) #24
  %14 = icmp eq i32 %12, %13
  br i1 %14, label %15, label %32

15:                                               ; preds = %10
  %16 = extractvalue { ptr, i32 } %11, 0
  %17 = tail call ptr @__cxa_begin_catch(ptr %16) #24
  store i8 0, ptr %1, align 8, !tbaa !26
  %18 = load ptr, ptr %17, align 8, !tbaa !16
  %19 = getelementptr inbounds nuw i8, ptr %18, i64 16
  %20 = load ptr, ptr %19, align 8
  %21 = tail call noundef ptr %20(ptr noundef nonnull align 8 dereferenceable(8) %17) #24
  %22 = getelementptr inbounds nuw i8, ptr %1, i64 16
  %23 = invoke noundef nonnull align 8 dereferenceable(32) ptr @_ZNSt7__cxx1112basic_stringIcSt11char_traitsIcESaIcEEaSEPKc(ptr noundef nonnull align 8 dereferenceable(32) %22, ptr noundef %21)
          to label %24 unwind label %30

24:                                               ; preds = %15
  %25 = tail call align 8 ptr @llvm.threadlocal.address.p0(ptr align 8 @_ZN17duckdb_libpgqueryL15pg_parser_stateE)
  %26 = getelementptr inbounds nuw i8, ptr %25, i64 4
  %27 = load i32, ptr %26, align 4, !tbaa !27
  %28 = getelementptr inbounds nuw i8, ptr %1, i64 48
  store i32 %27, ptr %28, align 8, !tbaa !28
  tail call void @__cxa_end_catch()
  br label %29

29:                                               ; preds = %24, %5
  ret void

30:                                               ; preds = %15
  %31 = landingpad { ptr, i32 }
          cleanup
  invoke void @__cxa_end_catch()
          to label %32 unwind label %33

32:                                               ; preds = %30, %10
  %.merged = phi { ptr, i32 } [ %11, %10 ], [ %31, %30 ]
  resume { ptr, i32 } %.merged

33:                                               ; preds = %30
  %34 = landingpad { ptr, i32 }
          catch ptr null
  %35 = extractvalue { ptr, i32 } %34, 0
  tail call void @__clang_call_terminate(ptr %35) #27
  unreachable
}